; Function Attrs: null_pointer_is_valid sspstrong uwtable
define internal i32 @get_lnet_message_len(ptr readnone captures(none) %0, ptr noundef %1, i32 noundef %2, ptr noundef %3) #0 {
  %5 = ptrtoint ptr %3 to i64
  %6 = trunc i64 %5 to i32
  %7 = add i32 %2, 52
  %8 = add i32 %7, %6
  %9 = tail call i32 @tvb_get_letohl(ptr noundef %1, i32 noundef %8)
  %10 = add i32 %6, 96
  %11 = add i32 %10, %9
  ret i32 %11
}